; Function Attrs: mustprogress uwtable
define void @_ZN2cv6detail13typeToString_B5cxx11Ei(ptr dead_on_unwind noalias writable sret(%"class.std::__cxx11::basic_string") align 8 %0, i32 noundef %1) local_unnamed_addr #2 {
  %3 = lshr i32 %1, 3
  %4 = and i32 %3, 511
  %5 = add nuw nsw i32 %4, 1
  %6 = and i32 %1, 7
  %7 = zext nneg i32 %6 to i64
  %8 = getelementptr inbounds nuw [8 x ptr], ptr @_ZZN2cv6detail14depthToString_EiE10depthNames, i64 0, i64 %7
  %9 = load ptr, ptr %8, align 8, !tbaa !3
  tail call void (ptr, ptr, ...) @_ZN2cv6formatB5cxx11EPKcz(ptr dead_on_unwind writable sret(%"class.std::__cxx11::basic_string") align 8 %0, ptr noundef nonnull @.str.10, ptr noundef %9, i32 noundef %5)
  ret void
}